target datalayout = "e-m:e-p270:32:32-p271:32:32-p272:64:64-i64:64-i128:128-f80:128-n8:16:32:64-S128"
target triple = "x86_64-unknown-linux-gnu"

%"class.cvc5::internal::NodeTemplate" = type { ptr }
%"class.cvc5::internal::NodeTemplate.28" = type { ptr }
%"class.cvc5::internal::theory::arith::linear::ArithVariables::LowerBoundCleanUp" = type { ptr }
%"class.cvc5::internal::theory::arith::linear::ArithVariables::UpperBoundCleanUp" = type { ptr }
%"class.cvc5::internal::theory::arith::linear::ArithVariables" = type { %"class.cvc5::internal::DenseMap", %"class.cvc5::internal::DenseMap.5", i32, %"class.std::vector", %"class.std::vector", %"class.std::unordered_map", %"class.cvc5::internal::DenseMap.16", i8, %"class.cvc5::context::CDList", %"class.cvc5::context::CDList.27", i8, %"class.cvc5::internal::Rational", %"class.cvc5::internal::theory::arith::linear::DeltaComputeCallback" }
%"class.cvc5::internal::DenseMap" = type { %"class.std::vector", %"class.std::vector", %"class.std::vector.0" }
%"class.std::vector.0" = type { %"struct.std::_Vector_base.1" }
%"struct.std::_Vector_base.1" = type { %"struct.std::_Vector_base<cvc5::internal::theory::arith::linear::ArithVariables::VarInfo, std::allocator<cvc5::internal::theory::arith::linear::ArithVariables::VarInfo>>::_Vector_impl" }
%"struct.std::_Vector_base<cvc5::internal::theory::arith::linear::ArithVariables::VarInfo, std::allocator<cvc5::internal::theory::arith::linear::ArithVariables::VarInfo>>::_Vector_impl" = type { %"struct.std::_Vector_base<cvc5::internal::theory::arith::linear::ArithVariables::VarInfo, std::allocator<cvc5::internal::theory::arith::linear::ArithVariables::VarInfo>>::_Vector_impl_data" }
%"struct.std::_Vector_base<cvc5::internal::theory::arith::linear::ArithVariables::VarInfo, std::allocator<cvc5::internal::theory::arith::linear::ArithVariables::VarInfo>>::_Vector_impl_data" = type { ptr, ptr, ptr }
%"class.cvc5::internal::DenseMap.5" = type { %"class.std::vector", %"class.std::vector", %"class.std::vector.6" }
%"class.std::vector.6" = type { %"struct.std::_Vector_base.7" }
%"struct.std::_Vector_base.7" = type { %"struct.std::_Vector_base<cvc5::internal::DeltaRational, std::allocator<cvc5::internal::DeltaRational>>::_Vector_impl" }
%"struct.std::_Vector_base<cvc5::internal::DeltaRational, std::allocator<cvc5::internal::DeltaRational>>::_Vector_impl" = type { %"struct.std::_Vector_base<cvc5::internal::DeltaRational, std::allocator<cvc5::internal::DeltaRational>>::_Vector_impl_data" }
%"struct.std::_Vector_base<cvc5::internal::DeltaRational, std::allocator<cvc5::internal::DeltaRational>>::_Vector_impl_data" = type { ptr, ptr, ptr }
%"class.std::vector" = type { %"struct.std::_Vector_base" }
%"struct.std::_Vector_base" = type { %"struct.std::_Vector_base<unsigned int, std::allocator<unsigned int>>::_Vector_impl" }
%"struct.std::_Vector_base<unsigned int, std::allocator<unsigned int>>::_Vector_impl" = type { %"struct.std::_Vector_base<unsigned int, std::allocator<unsigned int>>::_Vector_impl_data" }
%"struct.std::_Vector_base<unsigned int, std::allocator<unsigned int>>::_Vector_impl_data" = type { ptr, ptr, ptr }
%"class.std::unordered_map" = type { %"class.std::_Hashtable" }
%"class.std::_Hashtable" = type { ptr, i64, %"struct.std::__detail::_Hash_node_base", i64, %"struct.std::__detail::_Prime_rehash_policy", ptr }
%"struct.std::__detail::_Hash_node_base" = type { ptr }
%"struct.std::__detail::_Prime_rehash_policy" = type { float, i64 }
%"class.cvc5::internal::DenseMap.16" = type { %"class.std::vector", %"class.std::vector", %"class.std::vector.17" }
%"class.std::vector.17" = type { %"struct.std::_Vector_base.18" }
%"struct.std::_Vector_base.18" = type { %"struct.std::_Vector_base<cvc5::internal::theory::arith::linear::BoundsInfo, std::allocator<cvc5::internal::theory::arith::linear::BoundsInfo>>::_Vector_impl" }
%"struct.std::_Vector_base<cvc5::internal::theory::arith::linear::BoundsInfo, std::allocator<cvc5::internal::theory::arith::linear::BoundsInfo>>::_Vector_impl" = type { %"struct.std::_Vector_base<cvc5::internal::theory::arith::linear::BoundsInfo, std::allocator<cvc5::internal::theory::arith::linear::BoundsInfo>>::_Vector_impl_data" }
%"struct.std::_Vector_base<cvc5::internal::theory::arith::linear::BoundsInfo, std::allocator<cvc5::internal::theory::arith::linear::BoundsInfo>>::_Vector_impl_data" = type { ptr, ptr, ptr }
%"class.cvc5::context::CDList" = type { %"class.cvc5::context::ContextObj", %"class.std::vector.22", i64, i8, %"class.cvc5::internal::theory::arith::linear::ArithVariables::LowerBoundCleanUp" }
%"class.cvc5::context::ContextObj" = type { ptr, ptr, ptr, ptr, ptr }
%"class.std::vector.22" = type { %"struct.std::_Vector_base.23" }
%"struct.std::_Vector_base.23" = type { %"struct.std::_Vector_base<std::pair<unsigned int, cvc5::internal::theory::arith::linear::Constraint *>, std::allocator<std::pair<unsigned int, cvc5::internal::theory::arith::linear::Constraint *>>>::_Vector_impl" }
%"struct.std::_Vector_base<std::pair<unsigned int, cvc5::internal::theory::arith::linear::Constraint *>, std::allocator<std::pair<unsigned int, cvc5::internal::theory::arith::linear::Constraint *>>>::_Vector_impl" = type { %"struct.std::_Vector_base<std::pair<unsigned int, cvc5::internal::theory::arith::linear::Constraint *>, std::allocator<std::pair<unsigned int, cvc5::internal::theory::arith::linear::Constraint *>>>::_Vector_impl_data" }
%"struct.std::_Vector_base<std::pair<unsigned int, cvc5::internal::theory::arith::linear::Constraint *>, std::allocator<std::pair<unsigned int, cvc5::internal::theory::arith::linear::Constraint *>>>::_Vector_impl_data" = type { ptr, ptr, ptr }
%"class.cvc5::context::CDList.27" = type { %"class.cvc5::context::ContextObj", %"class.std::vector.22", i64, i8, %"class.cvc5::internal::theory::arith::linear::ArithVariables::UpperBoundCleanUp" }
%"class.cvc5::internal::Rational" = type { %class.__gmp_expr }
%class.__gmp_expr = type { [1 x %struct.__mpq_struct] }
%struct.__mpq_struct = type { %struct.__mpz_struct, %struct.__mpz_struct }
%struct.__mpz_struct = type { i32, i32, ptr }
%"class.cvc5::internal::theory::arith::linear::DeltaComputeCallback" = type { %"class.cvc5::internal::theory::arith::linear::RationalCallBack", ptr }
%"class.cvc5::internal::theory::arith::linear::RationalCallBack" = type { ptr }
%"class.cvc5::internal::theory::arith::linear::ArithVariables::VarInfo" = type <{ i32, [4 x i8], %"class.cvc5::internal::DeltaRational", ptr, ptr, i32, i32, i32, i32, %"class.cvc5::internal::NodeTemplate.28", i8, [7 x i8] }>
%"class.cvc5::internal::DeltaRational" = type { %"class.cvc5::internal::Rational", %"class.cvc5::internal::Rational" }
%"class.cvc5::internal::theory::arith::linear::Constraint" = type <{ i32, i32, %"class.cvc5::internal::DeltaRational", ptr, %"class.cvc5::internal::NodeTemplate.28", ptr, i8, [7 x i8], i64, %"class.cvc5::internal::NodeTemplate", i64, i8, [7 x i8], %"struct.std::_Rb_tree_iterator", i8, [7 x i8] }>
%"struct.std::_Rb_tree_iterator" = type { ptr }

; Function Attrs: mustprogress nounwind uwtable
define linkonce_odr hidden noundef zeroext i1 @_ZN18__gmp_binary_equal4evalEPK12__mpq_structS2_(ptr noundef %q, ptr noundef %r) #5 comdat align 2 {
entry:
  %q.addr = alloca ptr, align 8
  %r.addr = alloca ptr, align 8
  store ptr %q, ptr %q.addr, align 8
  store ptr %r, ptr %r.addr, align 8
  %0 = load ptr, ptr %q.addr, align 8
  %1 = load ptr, ptr %r.addr, align 8
  %call = call i32 @__gmpq_equal(ptr noundef %0, ptr noundef %1) #20
  %cmp = icmp ne i32 %call, 0
  ret i1 %cmp
}

; Function Attrs: mustprogress nounwind uwtable
define linkonce_odr hidden noundef ptr @_ZNK10__gmp_exprIA1_12__mpq_structS1_E8__get_mpEv(ptr noundef nonnull align 8 dereferenceable(32) %this) #5 comdat align 2 {
entry:
  %this.addr = alloca ptr, align 8
  store ptr %this, ptr %this.addr, align 8
  %this1 = load ptr, ptr %this.addr, align 8
  %mp = getelementptr inbounds %class.__gmp_expr, ptr %this1, i32 0, i32 0
  %arraydecay = getelementptr inbounds [1 x %struct.__mpq_struct], ptr %mp, i64 0, i64 0
  ret ptr %arraydecay
}

; Function Attrs: mustprogress uwtable
define linkonce_odr hidden noundef zeroext i1 @_ZeqIA1_12__mpq_structS1_S1_S1_EbRK10__gmp_exprIT_T0_ERKS2_IT1_T2_E(ptr noundef nonnull align 8 dereferenceable(32) %expr1, ptr noundef nonnull align 8 dereferenceable(32) %expr2) #4 comdat {
entry:
  %expr1.addr = alloca ptr, align 8
  %expr2.addr = alloca ptr, align 8
  %temp1 = alloca ptr, align 8
  %temp2 = alloca ptr, align 8
  store ptr %expr1, ptr %expr1.addr, align 8
  store ptr %expr2, ptr %expr2.addr, align 8
  %0 = load ptr, ptr %expr1.addr, align 8
  store ptr %0, ptr %temp1, align 8
  %1 = load ptr, ptr %expr2.addr, align 8
  store ptr %1, ptr %temp2, align 8
  %2 = load ptr, ptr %temp1, align 8
  %call = call noundef ptr @_ZNK10__gmp_exprIA1_12__mpq_structS1_E8__get_mpEv(ptr noundef nonnull align 8 dereferenceable(32) %2)
  %3 = load ptr, ptr %temp2, align 8
  %call1 = call noundef ptr @_ZNK10__gmp_exprIA1_12__mpq_structS1_E8__get_mpEv(ptr noundef nonnull align 8 dereferenceable(32) %3)
  %call2 = call noundef zeroext i1 @_ZN18__gmp_binary_equal4evalEPK12__mpq_structS2_(ptr noundef %call, ptr noundef %call1)
  ret i1 %call2
}

; Function Attrs: mustprogress nounwind uwtable
define linkonce_odr hidden noundef nonnull align 8 dereferenceable(113) ptr @_ZNKSt6vectorIN4cvc58internal6theory5arith6linear14ArithVariables7VarInfoESaIS6_EEixEm(ptr noundef nonnull align 8 dereferenceable(24) %this, i64 noundef %__n) #5 comdat align 2 {
entry:
  %this.addr = alloca ptr, align 8
  %__n.addr = alloca i64, align 8
  store ptr %this, ptr %this.addr, align 8
  store i64 %__n, ptr %__n.addr, align 8
  %this1 = load ptr, ptr %this.addr, align 8
  %_M_impl = getelementptr inbounds %"struct.std::_Vector_base.1", ptr %this1, i32 0, i32 0
  %_M_start = getelementptr inbounds %"struct.std::_Vector_base<cvc5::internal::theory::arith::linear::ArithVariables::VarInfo, std::allocator<cvc5::internal::theory::arith::linear::ArithVariables::VarInfo>>::_Vector_impl_data", ptr %_M_impl, i32 0, i32 0
  %0 = load ptr, ptr %_M_start, align 8
  %1 = load i64, ptr %__n.addr, align 8
  %add.ptr = getelementptr inbounds %"class.cvc5::internal::theory::arith::linear::ArithVariables::VarInfo", ptr %0, i64 %1
  ret ptr %add.ptr
}

; Function Attrs: mustprogress uwtable
define linkonce_odr hidden noundef zeroext i1 @_ZNK4cvc58internal8RationaleqERKS1_(ptr noundef nonnull align 8 dereferenceable(32) %this, ptr noundef nonnull align 8 dereferenceable(32) %y) #4 comdat align 2 {
entry:
  %this.addr = alloca ptr, align 8
  %y.addr = alloca ptr, align 8
  store ptr %this, ptr %this.addr, align 8
  store ptr %y, ptr %y.addr, align 8
  %this1 = load ptr, ptr %this.addr, align 8
  %d_value = getelementptr inbounds %"class.cvc5::internal::Rational", ptr %this1, i32 0, i32 0
  %0 = load ptr, ptr %y.addr, align 8
  %d_value2 = getelementptr inbounds %"class.cvc5::internal::Rational", ptr %0, i32 0, i32 0
  %call = call noundef zeroext i1 @_ZeqIA1_12__mpq_structS1_S1_S1_EbRK10__gmp_exprIT_T0_ERKS2_IT1_T2_E(ptr noundef nonnull align 8 dereferenceable(32) %d_value, ptr noundef nonnull align 8 dereferenceable(32) %d_value2)
  ret i1 %call
}

; Function Attrs: mustprogress uwtable
define linkonce_odr hidden noundef ptr @_ZNK4cvc58internal6theory5arith6linear14ArithVariables23getLowerBoundConstraintEj(ptr noundef nonnull align 8 dereferenceable(568) %this, i32 noundef %x) #4 comdat align 2 {
entry:
  %this.addr = alloca ptr, align 8
  %x.addr = alloca i32, align 4
  store ptr %this, ptr %this.addr, align 8
  store i32 %x, ptr %x.addr, align 4
  %this1 = load ptr, ptr %this.addr, align 8
  %d_vars = getelementptr inbounds %"class.cvc5::internal::theory::arith::linear::ArithVariables", ptr %this1, i32 0, i32 0
  %0 = load i32, ptr %x.addr, align 4
  %call = call noundef nonnull align 8 dereferenceable(113) ptr @_ZNK4cvc58internal8DenseMapINS0_6theory5arith6linear14ArithVariables7VarInfoEEixEj(ptr noundef nonnull align 8 dereferenceable(72) %d_vars, i32 noundef %0)
  %d_lb = getelementptr inbounds %"class.cvc5::internal::theory::arith::linear::ArithVariables::VarInfo", ptr %call, i32 0, i32 3
  %1 = load ptr, ptr %d_lb, align 8
  ret ptr %1
}

; Function Attrs: mustprogress nounwind uwtable
define linkonce_odr hidden noundef nonnull align 8 dereferenceable(64) ptr @_ZNK4cvc58internal6theory5arith6linear10Constraint8getValueEv(ptr noundef nonnull align 8 dereferenceable(145) %this) #5 comdat align 2 {
entry:
  %this.addr = alloca ptr, align 8
  store ptr %this, ptr %this.addr, align 8
  %this1 = load ptr, ptr %this.addr, align 8
  %d_value = getelementptr inbounds %"class.cvc5::internal::theory::arith::linear::Constraint", ptr %this1, i32 0, i32 2
  ret ptr %d_value
}

; Function Attrs: mustprogress uwtable
define linkonce_odr hidden noundef ptr @_ZNK4cvc58internal6theory5arith6linear14ArithVariables23getUpperBoundConstraintEj(ptr noundef nonnull align 8 dereferenceable(568) %this, i32 noundef %x) #4 comdat align 2 {
entry:
  %this.addr = alloca ptr, align 8
  %x.addr = alloca i32, align 4
  store ptr %this, ptr %this.addr, align 8
  store i32 %x, ptr %x.addr, align 4
  %this1 = load ptr, ptr %this.addr, align 8
  %d_vars = getelementptr inbounds %"class.cvc5::internal::theory::arith::linear::ArithVariables", ptr %this1, i32 0, i32 0
  %0 = load i32, ptr %x.addr, align 4
  %call = call noundef nonnull align 8 dereferenceable(113) ptr @_ZNK4cvc58internal8DenseMapINS0_6theory5arith6linear14ArithVariables7VarInfoEEixEj(ptr noundef nonnull align 8 dereferenceable(72) %d_vars, i32 noundef %0)
  %d_ub = getelementptr inbounds %"class.cvc5::internal::theory::arith::linear::ArithVariables::VarInfo", ptr %call, i32 0, i32 4
  %1 = load ptr, ptr %d_ub, align 8
  ret ptr %1
}

; Function Attrs: mustprogress nounwind uwtable
define linkonce_odr hidden noundef nonnull align 8 dereferenceable(113) ptr @_ZNK4cvc58internal8DenseMapINS0_6theory5arith6linear14ArithVariables7VarInfoEEixEj(ptr noundef nonnull align 8 dereferenceable(72) %this, i32 noundef %key) #5 comdat align 2 {
entry:
  %this.addr = alloca ptr, align 8
  %key.addr = alloca i32, align 4
  store ptr %this, ptr %this.addr, align 8
  store i32 %key, ptr %key.addr, align 4
  %this1 = load ptr, ptr %this.addr, align 8
  %d_image = getelementptr inbounds %"class.cvc5::internal::DenseMap", ptr %this1, i32 0, i32 2
  %0 = load i32, ptr %key.addr, align 4
  %conv = zext i32 %0 to i64
  %call = call noundef nonnull align 8 dereferenceable(113) ptr @_ZNKSt6vectorIN4cvc58internal6theory5arith6linear14ArithVariables7VarInfoESaIS6_EEixEm(ptr noundef nonnull align 8 dereferenceable(24) %d_image, i64 noundef %conv) #3
  ret ptr %call
}

; Function Attrs: mustprogress uwtable
define linkonce_odr hidden noundef zeroext i1 @_ZNK4cvc58internal13DeltaRationaleqERKS1_(ptr noundef nonnull align 8 dereferenceable(64) %this, ptr noundef nonnull align 8 dereferenceable(64) %other) #4 comdat align 2 {
entry:
  %this.addr = alloca ptr, align 8
  %other.addr = alloca ptr, align 8
  store ptr %this, ptr %this.addr, align 8
  store ptr %other, ptr %other.addr, align 8
  %this1 = load ptr, ptr %this.addr, align 8
  %k = getelementptr inbounds %"class.cvc5::internal::DeltaRational", ptr %this1, i32 0, i32 1
  %0 = load ptr, ptr %other.addr, align 8
  %k2 = getelementptr inbounds %"class.cvc5::internal::DeltaRational", ptr %0, i32 0, i32 1
  %call = call noundef zeroext i1 @_ZNK4cvc58internal8RationaleqERKS1_(ptr noundef nonnull align 8 dereferenceable(32) %k, ptr noundef nonnull align 8 dereferenceable(32) %k2)
  br i1 %call, label %land.rhs, label %land.end

land.rhs:                                         ; preds = %entry
  %c = getelementptr inbounds %"class.cvc5::internal::DeltaRational", ptr %this1, i32 0, i32 0
  %1 = load ptr, ptr %other.addr, align 8
  %c3 = getelementptr inbounds %"class.cvc5::internal::DeltaRational", ptr %1, i32 0, i32 0
  %call4 = call noundef zeroext i1 @_ZNK4cvc58internal8RationaleqERKS1_(ptr noundef nonnull align 8 dereferenceable(32) %c, ptr noundef nonnull align 8 dereferenceable(32) %c3)
  br label %land.end

land.end:                                         ; preds = %land.rhs, %entry
  %2 = phi i1 [ false, %entry ], [ %call4, %land.rhs ]
  ret i1 %2
}

; Function Attrs: mustprogress uwtable
define hidden noundef nonnull align 8 dereferenceable(64) ptr @_ZNK4cvc58internal6theory5arith6linear14ArithVariables13getLowerBoundEj(ptr noundef nonnull align 8 dereferenceable(568) %this, i32 noundef %x) #4 align 2 {
entry:
  %this.addr = alloca ptr, align 8
  %x.addr = alloca i32, align 4
  store ptr %this, ptr %this.addr, align 8
  store i32 %x, ptr %x.addr, align 4
  %this1 = load ptr, ptr %this.addr, align 8
  %0 = load i32, ptr %x.addr, align 4
  %call = call noundef ptr @_ZNK4cvc58internal6theory5arith6linear14ArithVariables23getLowerBoundConstraintEj(ptr noundef nonnull align 8 dereferenceable(568) %this1, i32 noundef %0)
  %call2 = call noundef nonnull align 8 dereferenceable(64) ptr @_ZNK4cvc58internal6theory5arith6linear10Constraint8getValueEv(ptr noundef nonnull align 8 dereferenceable(145) %call)
  ret ptr %call2
}

; Function Attrs: mustprogress uwtable
define hidden noundef nonnull align 8 dereferenceable(64) ptr @_ZNK4cvc58internal6theory5arith6linear14ArithVariables13getUpperBoundEj(ptr noundef nonnull align 8 dereferenceable(568) %this, i32 noundef %x) #4 align 2 {
entry:
  %this.addr = alloca ptr, align 8
  %x.addr = alloca i32, align 4
  store ptr %this, ptr %this.addr, align 8
  store i32 %x, ptr %x.addr, align 4
  %this1 = load ptr, ptr %this.addr, align 8
  %0 = load i32, ptr %x.addr, align 4
  %call = call noundef ptr @_ZNK4cvc58internal6theory5arith6linear14ArithVariables23getUpperBoundConstraintEj(ptr noundef nonnull align 8 dereferenceable(568) %this1, i32 noundef %0)
  %call2 = call noundef nonnull align 8 dereferenceable(64) ptr @_ZNK4cvc58internal6theory5arith6linear10Constraint8getValueEv(ptr noundef nonnull align 8 dereferenceable(145) %call)
  ret ptr %call2
}

; Function Attrs: mustprogress uwtable
define linkonce_odr hidden noundef zeroext i1 @_ZNK4cvc58internal6theory5arith6linear14ArithVariables13hasUpperBoundEj(ptr noundef nonnull align 8 dereferenceable(568) %this, i32 noundef %x) #4 comdat align 2 {
entry:
  %this.addr = alloca ptr, align 8
  %x.addr = alloca i32, align 4
  store ptr %this, ptr %this.addr, align 8
  store i32 %x, ptr %x.addr, align 4
  %this1 = load ptr, ptr %this.addr, align 8
  %d_vars = getelementptr inbounds %"class.cvc5::internal::theory::arith::linear::ArithVariables", ptr %this1, i32 0, i32 0
  %0 = load i32, ptr %x.addr, align 4
  %call = call noundef nonnull align 8 dereferenceable(113) ptr @_ZNK4cvc58internal8DenseMapINS0_6theory5arith6linear14ArithVariables7VarInfoEEixEj(ptr noundef nonnull align 8 dereferenceable(72) %d_vars, i32 noundef %0)
  %d_ub = getelementptr inbounds %"class.cvc5::internal::theory::arith::linear::ArithVariables::VarInfo", ptr %call, i32 0, i32 4
  %1 = load ptr, ptr %d_ub, align 8
  %cmp = icmp ne ptr %1, null
  ret i1 %cmp
}

; Function Attrs: mustprogress uwtable
define linkonce_odr hidden noundef zeroext i1 @_ZNK4cvc58internal6theory5arith6linear14ArithVariables13hasLowerBoundEj(ptr noundef nonnull align 8 dereferenceable(568) %this, i32 noundef %x) #4 comdat align 2 {
entry:
  %this.addr = alloca ptr, align 8
  %x.addr = alloca i32, align 4
  store ptr %this, ptr %this.addr, align 8
  store i32 %x, ptr %x.addr, align 4
  %this1 = load ptr, ptr %this.addr, align 8
  %d_vars = getelementptr inbounds %"class.cvc5::internal::theory::arith::linear::ArithVariables", ptr %this1, i32 0, i32 0
  %0 = load i32, ptr %x.addr, align 4
  %call = call noundef nonnull align 8 dereferenceable(113) ptr @_ZNK4cvc58internal8DenseMapINS0_6theory5arith6linear14ArithVariables7VarInfoEEixEj(ptr noundef nonnull align 8 dereferenceable(72) %d_vars, i32 noundef %0)
  %d_lb = getelementptr inbounds %"class.cvc5::internal::theory::arith::linear::ArithVariables::VarInfo", ptr %call, i32 0, i32 3
  %1 = load ptr, ptr %d_lb, align 8
  %cmp = icmp ne ptr %1, null
  ret i1 %cmp
}

; Function Attrs: mustprogress uwtable
define hidden noundef zeroext i1 @_ZNK4cvc58internal6theory5arith6linear14ArithVariables14boundsAreEqualEj(ptr noundef nonnull align 8 dereferenceable(568) %this, i32 noundef %x) #4 align 2 {
entry:
  %retval = alloca i1, align 1
  %this.addr = alloca ptr, align 8
  %x.addr = alloca i32, align 4
  store ptr %this, ptr %this.addr, align 8
  store i32 %x, ptr %x.addr, align 4
  %this1 = load ptr, ptr %this.addr, align 8
  %0 = load i32, ptr %x.addr, align 4
  %call = call noundef zeroext i1 @_ZNK4cvc58internal6theory5arith6linear14ArithVariables13hasLowerBoundEj(ptr noundef nonnull align 8 dereferenceable(568) %this1, i32 noundef %0)
  br i1 %call, label %land.lhs.true, label %if.else

land.lhs.true:                                    ; preds = %entry
  %1 = load i32, ptr %x.addr, align 4
  %call2 = call noundef zeroext i1 @_ZNK4cvc58internal6theory5arith6linear14ArithVariables13hasUpperBoundEj(ptr noundef nonnull align 8 dereferenceable(568) %this1, i32 noundef %1)
  br i1 %call2, label %if.then, label %if.else

if.then:                                          ; preds = %land.lhs.true
  %2 = load i32, ptr %x.addr, align 4
  %call3 = call noundef nonnull align 8 dereferenceable(64) ptr @_ZNK4cvc58internal6theory5arith6linear14ArithVariables13getUpperBoundEj(ptr noundef nonnull align 8 dereferenceable(568) %this1, i32 noundef %2)
  %3 = load i32, ptr %x.addr, align 4
  %call4 = call noundef nonnull align 8 dereferenceable(64) ptr @_ZNK4cvc58internal6theory5arith6linear14ArithVariables13getLowerBoundEj(ptr noundef nonnull align 8 dereferenceable(568) %this1, i32 noundef %3)
  %call5 = call noundef zeroext i1 @_ZNK4cvc58internal13DeltaRationaleqERKS1_(ptr noundef nonnull align 8 dereferenceable(64) %call3, ptr noundef nonnull align 8 dereferenceable(64) %call4)
  store i1 %call5, ptr %retval, align 1
  br label %return

if.else:                                          ; preds = %land.lhs.true, %entry
  store i1 false, ptr %retval, align 1
  br label %return

return:                                           ; preds = %if.else, %if.then
  %4 = load i1, ptr %retval, align 1
  ret i1 %4
}